; ModuleID = 'source-C-CXX/19/384.c'
source_filename = "source-C-CXX/19/384.c"
target datalayout = "e-m:e-p270:32:32-p271:32:32-p272:64:64-i64:64-f80:128-n8:16:32:64-S128"
target triple = "x86_64-pc-linux-gnu"

@.str = private unnamed_addr constant [5 x i8] c"%s%s\00", align 1
@.str.2 = private unnamed_addr constant [3 x i8] c"%s\00", align 1

; Function Attrs: nofree nounwind sspstrong uwtable
define dso_local void @main() local_unnamed_addr #0 {
  %1 = alloca [11 x i8], align 1
  %2 = alloca [4 x i8], align 1
  %3 = getelementptr inbounds [11 x i8], [11 x i8]* %1, i64 0, i64 0
  call void @llvm.lifetime.start.p0i8(i64 11, i8* nonnull %3) #4
  %4 = getelementptr inbounds [4 x i8], [4 x i8]* %2, i64 0, i64 0
  call void @llvm.lifetime.start.p0i8(i64 4, i8* nonnull %4) #4
  %5 = call i32 (i8*, ...) @__isoc99_scanf(i8* getelementptr inbounds ([5 x i8], [5 x i8]* @.str, i64 0, i64 0), i8* nonnull %3, i8* nonnull %4)
  %6 = icmp eq i32 %5, -1
  br i1 %6, label %77, label %7

7:                                                ; preds = %0
  %8 = getelementptr inbounds [11 x i8], [11 x i8]* %1, i64 0, i64 1
  br label %9

9:                                                ; preds = %7, %73
  %10 = load i8, i8* %3, align 1, !tbaa !5
  %11 = icmp eq i8 %10, 0
  br i1 %11, label %20, label %12

12:                                               ; preds = %9
  %13 = load i8, i8* %8, align 1, !tbaa !5
  %14 = icmp eq i8 %13, 0
  br i1 %14, label %15, label %27, !llvm.loop !8

15:                                               ; preds = %27, %12
  %16 = phi i32 [ 0, %12 ], [ %36, %27 ]
  %17 = icmp slt i32 %16, 0
  br i1 %17, label %18, label %20

18:                                               ; preds = %15
  %19 = add nsw i32 %16, 1
  br label %49

20:                                               ; preds = %9, %15
  %21 = phi i32 [ %16, %15 ], [ 0, %9 ]
  %22 = add nuw i32 %21, 1
  %23 = zext i32 %22 to i64
  %24 = sext i8 %10 to i32
  %25 = call i32 @putchar(i32 %24)
  %26 = icmp eq i32 %21, 0
  br i1 %26, label %49, label %41, !llvm.loop !10

27:                                               ; preds = %12, %27
  %28 = phi i8 [ %39, %27 ], [ %13, %12 ]
  %29 = phi i64 [ %37, %27 ], [ 1, %12 ]
  %30 = phi i32 [ %36, %27 ], [ 0, %12 ]
  %31 = sext i32 %30 to i64
  %32 = getelementptr inbounds [11 x i8], [11 x i8]* %1, i64 0, i64 %31
  %33 = load i8, i8* %32, align 1, !tbaa !5
  %34 = icmp sgt i8 %28, %33
  %35 = trunc i64 %29 to i32
  %36 = select i1 %34, i32 %35, i32 %30
  %37 = add nuw nsw i64 %29, 1
  %38 = getelementptr inbounds [11 x i8], [11 x i8]* %1, i64 0, i64 %37
  %39 = load i8, i8* %38, align 1, !tbaa !5
  %40 = icmp eq i8 %39, 0
  br i1 %40, label %15, label %27, !llvm.loop !8

41:                                               ; preds = %20, %41
  %42 = phi i64 [ %47, %41 ], [ 1, %20 ]
  %43 = getelementptr inbounds [11 x i8], [11 x i8]* %1, i64 0, i64 %42
  %44 = load i8, i8* %43, align 1, !tbaa !5
  %45 = sext i8 %44 to i32
  %46 = call i32 @putchar(i32 %45)
  %47 = add nuw nsw i64 %42, 1
  %48 = icmp eq i64 %47, %23
  br i1 %48, label %49, label %41, !llvm.loop !10

49:                                               ; preds = %41, %20, %18
  %50 = phi i32 [ %16, %18 ], [ %21, %20 ], [ %21, %41 ]
  %51 = phi i32 [ %19, %18 ], [ %22, %20 ], [ %22, %41 ]
  %52 = call i32 (i8*, ...) @printf(i8* nonnull dereferenceable(1) getelementptr inbounds ([3 x i8], [3 x i8]* @.str.2, i64 0, i64 0), i8* nonnull %4)
  %53 = sext i32 %50 to i64
  %54 = getelementptr inbounds [11 x i8], [11 x i8]* %1, i64 0, i64 %53
  %55 = sext i32 %51 to i64
  %56 = getelementptr inbounds [11 x i8], [11 x i8]* %1, i64 0, i64 %55
  %57 = load i8, i8* %56, align 1, !tbaa !5
  %58 = icmp eq i8 %57, 0
  br i1 %58, label %73, label %59

59:                                               ; preds = %49, %59
  %60 = phi i64 [ %61, %59 ], [ 0, %49 ]
  %61 = add nuw i64 %60, 1
  %62 = getelementptr inbounds i8, i8* %54, i64 %61
  %63 = load i8, i8* %62, align 1, !tbaa !5
  %64 = sext i8 %63 to i32
  %65 = call i32 @putchar(i32 %64)
  %66 = trunc i64 %60 to i32
  %67 = add i32 %66, 2
  %68 = add i32 %67, %50
  %69 = sext i32 %68 to i64
  %70 = getelementptr inbounds [11 x i8], [11 x i8]* %1, i64 0, i64 %69
  %71 = load i8, i8* %70, align 1, !tbaa !5
  %72 = icmp eq i8 %71, 0
  br i1 %72, label %73, label %59, !llvm.loop !11

73:                                               ; preds = %59, %49
  %74 = call i32 @putchar(i32 10)
  %75 = call i32 (i8*, ...) @__isoc99_scanf(i8* getelementptr inbounds ([5 x i8], [5 x i8]* @.str, i64 0, i64 0), i8* nonnull %3, i8* nonnull %4)
  %76 = icmp eq i32 %75, -1
  br i1 %76, label %77, label %9, !llvm.loop !12

77:                                               ; preds = %73, %0
  call void @llvm.lifetime.end.p0i8(i64 4, i8* nonnull %4) #4
  call void @llvm.lifetime.end.p0i8(i64 11, i8* nonnull %3) #4
  ret void
}

; Function Attrs: argmemonly mustprogress nofree nosync nounwind willreturn
declare void @llvm.lifetime.start.p0i8(i64 immarg, i8* nocapture) #1

; Function Attrs: nofree nounwind
declare noundef i32 @__isoc99_scanf(i8* nocapture noundef readonly, ...) local_unnamed_addr #2

; Function Attrs: nofree nounwind
declare noundef i32 @printf(i8* nocapture noundef readonly, ...) local_unnamed_addr #2

; Function Attrs: argmemonly mustprogress nofree nosync nounwind willreturn
declare void @llvm.lifetime.end.p0i8(i64 immarg, i8* nocapture) #1

; Function Attrs: nofree nounwind
declare noundef i32 @putchar(i32 noundef) local_unnamed_addr #3


!llvm.module.flags = !{!0, !1, !2, !3}
!llvm.ident = !{!4}

!0 = !{i32 1, !"wchar_size", i32 4}
!1 = !{i32 7, !"PIC Level", i32 2}
!2 = !{i32 7, !"PIE Level", i32 2}
!3 = !{i32 7, !"uwtable", i32 1}
!4 = !{!"clang version 13.0.0"}
!5 = !{!6, !6, i64 0}
!6 = !{!"omnipotent char", !7, i64 0}
!7 = !{!"Simple C/C++ TBAA"}
!8 = distinct !{!8, !9}
!9 = !{!"llvm.loop.mustprogress"}
!10 = distinct !{!10, !9}
!11 = distinct !{!11, !9}
!12 = distinct !{!12, !9}
